; Function Attrs: mustprogress uwtable
define hidden noalias noundef ptr @_ZN20dependency_converter4unitER7obj_refIN18dependency_managerIN11ast_manager22expr_dependency_configEE10dependencyES2_E(ptr nocapture noundef nonnull readonly align 8 dereferenceable(16) %d) local_unnamed_addr #3 align 2 personality ptr @__gxx_personality_v0 {
entry:
  %call = tail call noalias noundef ptr @_ZN6memory8allocateEm(i64 noundef 32)
  %m_ref_count.i.i.i = getelementptr inbounds i8, ptr %call, i64 8
  store i32 0, ptr %m_ref_count.i.i.i, align 8
  store ptr getelementptr inbounds ({ [8 x ptr] }, ptr @_ZTV25unit_dependency_converter, i64 0, i32 0, i64 2), ptr %call, align 8
  %m_dep.i = getelementptr inbounds i8, ptr %call, i64 16
  %0 = load ptr, ptr %d, align 8
  store ptr %0, ptr %m_dep.i, align 8
  %m_manager.i.i = getelementptr inbounds i8, ptr %call, i64 24
  %m_manager3.i.i = getelementptr inbounds i8, ptr %d, i64 8
  %1 = load ptr, ptr %m_manager3.i.i, align 8
  store ptr %1, ptr %m_manager.i.i, align 8
  %tobool.not.i.i.i = icmp eq ptr %0, null
  br i1 %tobool.not.i.i.i, label %_ZN25unit_dependency_converterC2ER7obj_refIN18dependency_managerIN11ast_manager22expr_dependency_configEE10dependencyES2_E.exit, label %_ZN11ast_manager7inc_refEPN18dependency_managerINS_22expr_dependency_configEE10dependencyE.exit.i.i.i

_ZN11ast_manager7inc_refEPN18dependency_managerINS_22expr_dependency_configEE10dependencyE.exit.i.i.i: ; preds = %entry
  %bf.load.i.i.i.i.i = load i32, ptr %0, align 4
  %inc.i.i.i.i.i = add i32 %bf.load.i.i.i.i.i, 1
  %bf.value.i.i.i.i.i = and i32 %inc.i.i.i.i.i, 1073741823
  %bf.clear3.i.i.i.i.i = and i32 %bf.load.i.i.i.i.i, -1073741824
  %bf.set.i.i.i.i.i = or disjoint i32 %bf.value.i.i.i.i.i, %bf.clear3.i.i.i.i.i
  store i32 %bf.set.i.i.i.i.i, ptr %0, align 4
  br label %_ZN25unit_dependency_converterC2ER7obj_refIN18dependency_managerIN11ast_manager22expr_dependency_configEE10dependencyES2_E.exit

_ZN25unit_dependency_converterC2ER7obj_refIN18dependency_managerIN11ast_manager22expr_dependency_configEE10dependencyES2_E.exit: ; preds = %entry, %_ZN11ast_manager7inc_refEPN18dependency_managerINS_22expr_dependency_configEE10dependencyE.exit.i.i.i
  ret ptr %call
}